target datalayout = "e-m:e-p270:32:32-p271:32:32-p272:64:64-i64:64-i128:128-f80:128-n8:16:32:64-S128"
target triple = "x86_64-pc-linux-gnu"

%struct.SDL_BlitInfo = type { ptr, ptr, i32, i32, i32, i32, ptr, ptr, i32, i32, i32, i32, ptr, ptr, ptr, ptr, ptr, ptr, i32, i32, i8, i8, i8, i8 }

; Function Attrs: nounwind uwtable
define internal void @SDL_Blit_BGRA8888_XRGB8888_Scale(ptr noundef %0) #0 {
  %2 = alloca ptr, align 8
  %3 = alloca i32, align 4
  %4 = alloca i32, align 4
  %5 = alloca i32, align 4
  %6 = alloca i32, align 4
  %7 = alloca i64, align 8
  %8 = alloca i64, align 8
  %9 = alloca i64, align 8
  %10 = alloca i64, align 8
  %11 = alloca i64, align 8
  %12 = alloca i64, align 8
  %13 = alloca ptr, align 8
  %14 = alloca ptr, align 8
  %15 = alloca i32, align 4
  store ptr %0, ptr %2, align 8
  call void @llvm.lifetime.start.p0(i64 4, ptr %3) #2
  call void @llvm.lifetime.start.p0(i64 4, ptr %4) #2
  call void @llvm.lifetime.start.p0(i64 4, ptr %5) #2
  call void @llvm.lifetime.start.p0(i64 4, ptr %6) #2
  call void @llvm.lifetime.start.p0(i64 8, ptr %7) #2
  call void @llvm.lifetime.start.p0(i64 8, ptr %8) #2
  call void @llvm.lifetime.start.p0(i64 8, ptr %9) #2
  call void @llvm.lifetime.start.p0(i64 8, ptr %10) #2
  call void @llvm.lifetime.start.p0(i64 8, ptr %11) #2
  call void @llvm.lifetime.start.p0(i64 8, ptr %12) #2
  %16 = load ptr, ptr %2, align 8
  %17 = getelementptr inbounds nuw %struct.SDL_BlitInfo, ptr %16, i32 0, i32 3
  %18 = load i32, ptr %17, align 4
  %19 = sext i32 %18 to i64
  %20 = shl i64 %19, 16
  %21 = load ptr, ptr %2, align 8
  %22 = getelementptr inbounds nuw %struct.SDL_BlitInfo, ptr %21, i32 0, i32 9
  %23 = load i32, ptr %22, align 4
  %24 = sext i32 %23 to i64
  %25 = udiv i64 %20, %24
  store i64 %25, ptr %11, align 8
  %26 = load ptr, ptr %2, align 8
  %27 = getelementptr inbounds nuw %struct.SDL_BlitInfo, ptr %26, i32 0, i32 2
  %28 = load i32, ptr %27, align 8
  %29 = sext i32 %28 to i64
  %30 = shl i64 %29, 16
  %31 = load ptr, ptr %2, align 8
  %32 = getelementptr inbounds nuw %struct.SDL_BlitInfo, ptr %31, i32 0, i32 8
  %33 = load i32, ptr %32, align 8
  %34 = sext i32 %33 to i64
  %35 = udiv i64 %30, %34
  store i64 %35, ptr %12, align 8
  %36 = load i64, ptr %11, align 8
  %37 = udiv i64 %36, 2
  store i64 %37, ptr %9, align 8
  br label %38

38:                                               ; preds = %103, %1
  %39 = load ptr, ptr %2, align 8
  %40 = getelementptr inbounds nuw %struct.SDL_BlitInfo, ptr %39, i32 0, i32 9
  %41 = load i32, ptr %40, align 4
  %42 = add nsw i32 %41, -1
  store i32 %42, ptr %40, align 4
  %43 = icmp ne i32 %41, 0
  br i1 %43, label %44, label %115

44:                                               ; preds = %38
  call void @llvm.lifetime.start.p0(i64 8, ptr %13) #2
  store ptr null, ptr %13, align 8
  call void @llvm.lifetime.start.p0(i64 8, ptr %14) #2
  %45 = load ptr, ptr %2, align 8
  %46 = getelementptr inbounds nuw %struct.SDL_BlitInfo, ptr %45, i32 0, i32 7
  %47 = load ptr, ptr %46, align 8
  store ptr %47, ptr %14, align 8
  call void @llvm.lifetime.start.p0(i64 4, ptr %15) #2
  %48 = load ptr, ptr %2, align 8
  %49 = getelementptr inbounds nuw %struct.SDL_BlitInfo, ptr %48, i32 0, i32 8
  %50 = load i32, ptr %49, align 8
  store i32 %50, ptr %15, align 4
  %51 = load i64, ptr %12, align 8
  %52 = udiv i64 %51, 2
  store i64 %52, ptr %10, align 8
  %53 = load i64, ptr %9, align 8
  %54 = lshr i64 %53, 16
  store i64 %54, ptr %7, align 8
  br label %55

55:                                               ; preds = %59, %44
  %56 = load i32, ptr %15, align 4
  %57 = add nsw i32 %56, -1
  store i32 %57, ptr %15, align 4
  %58 = icmp ne i32 %56, 0
  br i1 %58, label %59, label %103

59:                                               ; preds = %55
  %60 = load i64, ptr %10, align 8
  %61 = lshr i64 %60, 16
  store i64 %61, ptr %8, align 8
  %62 = load ptr, ptr %2, align 8
  %63 = getelementptr inbounds nuw %struct.SDL_BlitInfo, ptr %62, i32 0, i32 1
  %64 = load ptr, ptr %63, align 8
  %65 = load i64, ptr %7, align 8
  %66 = load ptr, ptr %2, align 8
  %67 = getelementptr inbounds nuw %struct.SDL_BlitInfo, ptr %66, i32 0, i32 4
  %68 = load i32, ptr %67, align 8
  %69 = sext i32 %68 to i64
  %70 = mul i64 %65, %69
  %71 = getelementptr inbounds nuw i8, ptr %64, i64 %70
  %72 = load i64, ptr %8, align 8
  %73 = mul i64 %72, 4
  %74 = getelementptr inbounds nuw i8, ptr %71, i64 %73
  store ptr %74, ptr %13, align 8
  %75 = load ptr, ptr %13, align 8
  %76 = load i32, ptr %75, align 4
  store i32 %76, ptr %3, align 4
  %77 = load i32, ptr %3, align 4
  %78 = lshr i32 %77, 24
  %79 = trunc i32 %78 to i8
  %80 = zext i8 %79 to i32
  store i32 %80, ptr %6, align 4
  %81 = load i32, ptr %3, align 4
  %82 = lshr i32 %81, 16
  %83 = trunc i32 %82 to i8
  %84 = zext i8 %83 to i32
  store i32 %84, ptr %5, align 4
  %85 = load i32, ptr %3, align 4
  %86 = lshr i32 %85, 8
  %87 = trunc i32 %86 to i8
  %88 = zext i8 %87 to i32
  store i32 %88, ptr %4, align 4
  %89 = load i32, ptr %4, align 4
  %90 = shl i32 %89, 16
  %91 = load i32, ptr %5, align 4
  %92 = shl i32 %91, 8
  %93 = or i32 %90, %92
  %94 = load i32, ptr %6, align 4
  %95 = or i32 %93, %94
  store i32 %95, ptr %3, align 4
  %96 = load i32, ptr %3, align 4
  %97 = load ptr, ptr %14, align 8
  store i32 %96, ptr %97, align 4
  %98 = load i64, ptr %12, align 8
  %99 = load i64, ptr %10, align 8
  %100 = add i64 %99, %98
  store i64 %100, ptr %10, align 8
  %101 = load ptr, ptr %14, align 8
  %102 = getelementptr inbounds nuw i32, ptr %101, i32 1
  store ptr %102, ptr %14, align 8
  br label %55, !llvm.loop !284

103:                                              ; preds = %55
  %104 = load i64, ptr %11, align 8
  %105 = load i64, ptr %9, align 8
  %106 = add i64 %105, %104
  store i64 %106, ptr %9, align 8
  %107 = load ptr, ptr %2, align 8
  %108 = getelementptr inbounds nuw %struct.SDL_BlitInfo, ptr %107, i32 0, i32 10
  %109 = load i32, ptr %108, align 8
  %110 = load ptr, ptr %2, align 8
  %111 = getelementptr inbounds nuw %struct.SDL_BlitInfo, ptr %110, i32 0, i32 7
  %112 = load ptr, ptr %111, align 8
  %113 = sext i32 %109 to i64
  %114 = getelementptr inbounds i8, ptr %112, i64 %113
  store ptr %114, ptr %111, align 8
  call void @llvm.lifetime.end.p0(i64 4, ptr %15) #2
  call void @llvm.lifetime.end.p0(i64 8, ptr %14) #2
  call void @llvm.lifetime.end.p0(i64 8, ptr %13) #2
  br label %38, !llvm.loop !285

115:                                              ; preds = %38
  call void @llvm.lifetime.end.p0(i64 8, ptr %12) #2
  call void @llvm.lifetime.end.p0(i64 8, ptr %11) #2
  call void @llvm.lifetime.end.p0(i64 8, ptr %10) #2
  call void @llvm.lifetime.end.p0(i64 8, ptr %9) #2
  call void @llvm.lifetime.end.p0(i64 8, ptr %8) #2
  call void @llvm.lifetime.end.p0(i64 8, ptr %7) #2
  call void @llvm.lifetime.end.p0(i64 4, ptr %6) #2
  call void @llvm.lifetime.end.p0(i64 4, ptr %5) #2
  call void @llvm.lifetime.end.p0(i64 4, ptr %4) #2
  call void @llvm.lifetime.end.p0(i64 4, ptr %3) #2
  ret void
}